; Function Attrs: nounwind uwtable
define dso_local void @logicalrep_write_message(ptr noundef %0, i32 noundef %1, i64 noundef %2, i1 noundef zeroext %3, ptr noundef %4, i64 noundef %5, ptr noundef %6) local_unnamed_addr #0 {
  tail call void @enlargeStringInfo(ptr noundef %0, i32 noundef 1) #8
  tail call void @llvm.experimental.noalias.scope.decl(metadata !183)
  %8 = load ptr, ptr %0, align 8, !alias.scope !183
  %9 = getelementptr inbounds nuw i8, ptr %0, i64 8
  %10 = load i32, ptr %9, align 8, !alias.scope !183
  %11 = sext i32 %10 to i64
  %12 = getelementptr inbounds i8, ptr %8, i64 %11
  store i8 77, ptr %12, align 1, !noalias !183
  %13 = add i32 %10, 1
  store i32 %13, ptr %9, align 8, !alias.scope !183
  %.not = icmp eq i32 %1, 0
  br i1 %.not, label %21, label %14

14:                                               ; preds = %7
  tail call void @enlargeStringInfo(ptr noundef nonnull %0, i32 noundef 4) #8
  tail call void @llvm.experimental.noalias.scope.decl(metadata !186)
  %15 = tail call i32 @llvm.bswap.i32(i32 %1)
  %16 = load ptr, ptr %0, align 8, !alias.scope !186
  %17 = load i32, ptr %9, align 8, !alias.scope !186
  %18 = sext i32 %17 to i64
  %19 = getelementptr inbounds i8, ptr %16, i64 %18
  store i32 %15, ptr %19, align 1, !noalias !186
  %20 = add i32 %17, 4
  store i32 %20, ptr %9, align 8, !alias.scope !186
  br label %21

21:                                               ; preds = %14, %7
  %spec.select = zext i1 %3 to i8
  tail call void @enlargeStringInfo(ptr noundef nonnull %0, i32 noundef 1) #8
  tail call void @llvm.experimental.noalias.scope.decl(metadata !189)
  %22 = load ptr, ptr %0, align 8, !alias.scope !189
  %23 = load i32, ptr %9, align 8, !alias.scope !189
  %24 = sext i32 %23 to i64
  %25 = getelementptr inbounds i8, ptr %22, i64 %24
  store i8 %spec.select, ptr %25, align 1, !noalias !189
  %26 = add i32 %23, 1
  store i32 %26, ptr %9, align 8, !alias.scope !189
  tail call void @enlargeStringInfo(ptr noundef nonnull %0, i32 noundef 8) #8
  tail call void @llvm.experimental.noalias.scope.decl(metadata !192)
  %27 = tail call i64 @llvm.bswap.i64(i64 %2)
  %28 = load ptr, ptr %0, align 8, !alias.scope !192
  %29 = load i32, ptr %9, align 8, !alias.scope !192
  %30 = sext i32 %29 to i64
  %31 = getelementptr inbounds i8, ptr %28, i64 %30
  store i64 %27, ptr %31, align 1, !noalias !192
  %32 = add i32 %29, 8
  store i32 %32, ptr %9, align 8, !alias.scope !192
  tail call void @pq_sendstring(ptr noundef nonnull %0, ptr noundef %4) #8
  %33 = trunc i64 %5 to i32
  tail call void @enlargeStringInfo(ptr noundef nonnull %0, i32 noundef 4) #8
  tail call void @llvm.experimental.noalias.scope.decl(metadata !195)
  %34 = tail call i32 @llvm.bswap.i32(i32 %33)
  %35 = load ptr, ptr %0, align 8, !alias.scope !195
  %36 = load i32, ptr %9, align 8, !alias.scope !195
  %37 = sext i32 %36 to i64
  %38 = getelementptr inbounds i8, ptr %35, i64 %37
  store i32 %34, ptr %38, align 1, !noalias !195
  %39 = add i32 %36, 4
  store i32 %39, ptr %9, align 8, !alias.scope !195
  tail call void @pq_sendbytes(ptr noundef nonnull %0, ptr noundef %6, i32 noundef %33) #8
  ret void
}